; Function Attrs: nounwind uwtable
define ptr @l_Lean_Elab_Tactic_BVDecide_Frontend_ReifiedBVLogical_of_go___lambda__10(ptr readnone captures(none) %0, ptr readnone captures(none) %1, ptr noundef %2, ptr noundef %3, ptr noundef %4, ptr noundef %5, ptr noundef %6, ptr noundef %7) local_unnamed_addr #1 {
  %9 = tail call ptr @l_Lean_Elab_Tactic_BVDecide_Frontend_ReifiedBVLogical_mkBoolConst(i8 noundef zeroext 1, ptr noundef %2, ptr noundef %3, ptr noundef %4, ptr noundef %5, ptr noundef %6, ptr noundef %7) #5
  %.val = load i32, ptr %9, align 4, !tbaa !4
  %10 = icmp eq i32 %.val, 1
  %11 = getelementptr inbounds nuw i8, ptr %9, i64 8
  %12 = load ptr, ptr %11, align 8, !tbaa !9
  br i1 %10, label %13, label %19

13:                                               ; preds = %8
  tail call void @lean_inc_heartbeat() #5
  %14 = tail call noalias ptr @mi_malloc_small(i64 noundef 16) #5
  %15 = icmp eq ptr %14, null
  br i1 %15, label %16, label %lean_alloc_ctor.exit

16:                                               ; preds = %13
  tail call void @lean_internal_panic_out_of_memory() #6
  unreachable

lean_alloc_ctor.exit:                             ; preds = %13
  %17 = getelementptr inbounds nuw i8, ptr %14, i64 4
  store i32 1, ptr %14, align 4, !tbaa !4
  store i32 16842768, ptr %17, align 4
  %18 = getelementptr inbounds nuw i8, ptr %14, i64 8
  store ptr %12, ptr %18, align 8, !tbaa !9
  store ptr %14, ptr %11, align 8, !tbaa !9
  br label %58

19:                                               ; preds = %8
  %20 = getelementptr inbounds nuw i8, ptr %9, i64 16
  %21 = load ptr, ptr %20, align 8, !tbaa !9
  %22 = ptrtoint ptr %21 to i64
  %23 = and i64 %22, 1
  %.not = icmp eq i64 %23, 0
  br i1 %.not, label %24, label %lean_inc.exit27

24:                                               ; preds = %19
  %.val.i = load i32, ptr %21, align 4, !tbaa !4
  %25 = icmp sgt i32 %.val.i, 0
  br i1 %25, label %26, label %28, !prof !11

26:                                               ; preds = %24
  %27 = add nuw i32 %.val.i, 1
  store i32 %27, ptr %21, align 4, !tbaa !4
  br label %lean_inc.exit27

28:                                               ; preds = %24
  %.not.i28 = icmp eq i32 %.val.i, 0
  br i1 %.not.i28, label %lean_inc.exit27, label %29

29:                                               ; preds = %28
  tail call void @lean_inc_ref_cold(ptr noundef nonnull %21) #5
  br label %lean_inc.exit27

lean_inc.exit27:                                  ; preds = %29, %28, %26, %19
  %30 = ptrtoint ptr %12 to i64
  %31 = and i64 %30, 1
  %.not34 = icmp eq i64 %31, 0
  br i1 %.not34, label %32, label %lean_inc.exit

32:                                               ; preds = %lean_inc.exit27
  %.val.i29 = load i32, ptr %12, align 4, !tbaa !4
  %33 = icmp sgt i32 %.val.i29, 0
  br i1 %33, label %34, label %36, !prof !11

34:                                               ; preds = %32
  %35 = add nuw i32 %.val.i29, 1
  store i32 %35, ptr %12, align 4, !tbaa !4
  br label %lean_inc.exit

36:                                               ; preds = %32
  %.not.i30 = icmp eq i32 %.val.i29, 0
  br i1 %.not.i30, label %lean_inc.exit, label %37

37:                                               ; preds = %36
  tail call void @lean_inc_ref_cold(ptr noundef nonnull %12) #5
  br label %lean_inc.exit

lean_inc.exit:                                    ; preds = %37, %36, %34, %lean_inc.exit27
  %38 = ptrtoint ptr %9 to i64
  %39 = and i64 %38, 1
  %.not35 = icmp eq i64 %39, 0
  br i1 %.not35, label %40, label %lean_dec.exit

40:                                               ; preds = %lean_inc.exit
  %41 = load i32, ptr %9, align 4, !tbaa !4
  %42 = icmp sgt i32 %41, 1
  br i1 %42, label %43, label %45, !prof !11

43:                                               ; preds = %40
  %44 = add nsw i32 %41, -1
  store i32 %44, ptr %9, align 4, !tbaa !4
  br label %lean_dec.exit

45:                                               ; preds = %40
  %.not.i = icmp eq i32 %41, 0
  br i1 %.not.i, label %lean_dec.exit, label %46

46:                                               ; preds = %45
  tail call void @lean_dec_ref_cold(ptr noundef nonnull %9) #5
  br label %lean_dec.exit

lean_dec.exit:                                    ; preds = %46, %45, %43, %lean_inc.exit
  tail call void @lean_inc_heartbeat() #5
  %47 = tail call noalias ptr @mi_malloc_small(i64 noundef 16) #5
  %48 = icmp eq ptr %47, null
  br i1 %48, label %49, label %lean_alloc_ctor.exit32

49:                                               ; preds = %lean_dec.exit
  tail call void @lean_internal_panic_out_of_memory() #6
  unreachable

lean_alloc_ctor.exit32:                           ; preds = %lean_dec.exit
  %50 = getelementptr inbounds nuw i8, ptr %47, i64 4
  store i32 1, ptr %47, align 4, !tbaa !4
  store i32 16842768, ptr %50, align 4
  %51 = getelementptr inbounds nuw i8, ptr %47, i64 8
  store ptr %12, ptr %51, align 8, !tbaa !9
  tail call void @lean_inc_heartbeat() #5
  %52 = tail call noalias ptr @mi_malloc_small(i64 noundef 24) #5
  %53 = icmp eq ptr %52, null
  br i1 %53, label %54, label %lean_alloc_ctor.exit33

54:                                               ; preds = %lean_alloc_ctor.exit32
  tail call void @lean_internal_panic_out_of_memory() #6
  unreachable

lean_alloc_ctor.exit33:                           ; preds = %lean_alloc_ctor.exit32
  %55 = getelementptr inbounds nuw i8, ptr %52, i64 4
  store i32 1, ptr %52, align 4, !tbaa !4
  store i32 131096, ptr %55, align 4
  %56 = getelementptr inbounds nuw i8, ptr %52, i64 8
  store ptr %47, ptr %56, align 8, !tbaa !9
  %57 = getelementptr inbounds nuw i8, ptr %52, i64 16
  store ptr %21, ptr %57, align 8, !tbaa !9
  br label %58

58:                                               ; preds = %lean_alloc_ctor.exit33, %lean_alloc_ctor.exit
  %.0 = phi ptr [ %9, %lean_alloc_ctor.exit ], [ %52, %lean_alloc_ctor.exit33 ]
  ret ptr %.0
}